target datalayout = "e-m:e-p270:32:32-p271:32:32-p272:64:64-i64:64-i128:128-f80:128-n8:16:32:64-S128"
target triple = "x86_64-pc-linux-gnu"

; Function Attrs: mustprogress nounwind uwtable
define noundef i32 @_ZN6icu_7717DateFormatSymbols19getPatternCharIndexEDs(i16 noundef zeroext %0) #0 align 2 {
  %2 = alloca i32, align 4
  %3 = alloca i16, align 2
  %4 = alloca i8, align 1
  store i16 %0, ptr %3, align 2, !tbaa !164
  %5 = load i16, ptr %3, align 2, !tbaa !164
  %6 = zext i16 %5 to i32
  %7 = icmp sge i32 %6, 128
  br i1 %7, label %8, label %9

8:                                                ; preds = %1
  store i32 38, ptr %2, align 4
  br label %23

9:                                                ; preds = %1
  call void @llvm.lifetime.start.p0(i64 1, ptr %4) #14
  %10 = load i16, ptr %3, align 2, !tbaa !164
  %11 = zext i16 %10 to i64
  %12 = getelementptr inbounds nuw [128 x i8], ptr @_ZL19gLookupPatternChars, i64 0, i64 %11
  %13 = load i8, ptr %12, align 1, !tbaa !51
  store i8 %13, ptr %4, align 1, !tbaa !51
  %14 = load i8, ptr %4, align 1, !tbaa !51
  %15 = sext i8 %14 to i32
  %16 = icmp eq i32 %15, -1
  br i1 %16, label %17, label %18

17:                                               ; preds = %9
  br label %21

18:                                               ; preds = %9
  %19 = load i8, ptr %4, align 1, !tbaa !51
  %20 = sext i8 %19 to i32
  br label %21

21:                                               ; preds = %18, %17
  %22 = phi i32 [ 38, %17 ], [ %20, %18 ]
  store i32 %22, ptr %2, align 4
  call void @llvm.lifetime.end.p0(i64 1, ptr %4) #14
  br label %23

23:                                               ; preds = %21, %8
  %24 = load i32, ptr %2, align 4
  ret i32 %24
}