; Function Attrs: mustprogress nofree norecurse nosync nounwind willreturn memory(none) uwtable
define noundef range(i32 -128, 128) i32 @_ZN6icu_7717DateFormatSymbols19getPatternCharIndexEDs(i16 noundef zeroext %0) local_unnamed_addr #11 align 2 {
  %2 = icmp ugt i16 %0, 127
  br i1 %2, label %9, label %3

3:                                                ; preds = %1
  %4 = zext nneg i16 %0 to i64
  %5 = getelementptr inbounds nuw [128 x i8], ptr @_ZL19gLookupPatternChars, i64 0, i64 %4
  %6 = load i8, ptr %5, align 1, !tbaa !23
  %7 = icmp eq i8 %6, -1
  %narrow = select i1 %7, i8 38, i8 %6
  %8 = sext i8 %narrow to i32
  br label %9

9:                                                ; preds = %1, %3
  %.0 = phi i32 [ %8, %3 ], [ 38, %1 ]
  ret i32 %.0
}